; Function Attrs: mustprogress uwtable
define noundef ptr @_ZN4cvc57context10ContextObj18restoreAndContinueEv(ptr noundef nonnull align 8 dereferenceable(40) %this) local_unnamed_addr #3 align 2 {
entry:
  %d_pContextObjRestore = getelementptr inbounds i8, ptr %this, i64 16
  %0 = load ptr, ptr %d_pContextObjRestore, align 8
  %cmp = icmp eq ptr %0, null
  br i1 %cmp, label %cond.end, label %if.else

cond.end:                                         ; preds = %entry
  %d_pContextObjNext = getelementptr inbounds i8, ptr %this, i64 24
  %1 = load ptr, ptr %d_pContextObjNext, align 8
  %d_pScope = getelementptr inbounds i8, ptr %this, i64 8
  store ptr null, ptr %d_pScope, align 8
  br label %if.end27

if.else:                                          ; preds = %entry
  %vtable = load ptr, ptr %this, align 8
  %vfn = getelementptr inbounds i8, ptr %vtable, i64 8
  %2 = load ptr, ptr %vfn, align 8
  tail call void %2(ptr noundef nonnull align 8 dereferenceable(40) %this, ptr noundef nonnull %0)
  %d_pContextObjNext8 = getelementptr inbounds i8, ptr %this, i64 24
  %3 = load ptr, ptr %d_pContextObjNext8, align 8
  %4 = load ptr, ptr %d_pContextObjRestore, align 8
  %d_pScope10 = getelementptr inbounds i8, ptr %4, i64 8
  %5 = load ptr, ptr %d_pScope10, align 8
  %d_pScope11 = getelementptr inbounds i8, ptr %this, i64 8
  store ptr %5, ptr %d_pScope11, align 8
  %d_pContextObjNext13 = getelementptr inbounds i8, ptr %4, i64 24
  %6 = load ptr, ptr %d_pContextObjNext13, align 8
  store ptr %6, ptr %d_pContextObjNext8, align 8
  %d_ppContextObjPrev = getelementptr inbounds i8, ptr %4, i64 32
  %7 = load ptr, ptr %d_ppContextObjPrev, align 8
  %d_ppContextObjPrev.i = getelementptr inbounds i8, ptr %this, i64 32
  store ptr %7, ptr %d_ppContextObjPrev.i, align 8
  %d_pContextObjRestore18 = getelementptr inbounds i8, ptr %4, i64 16
  %8 = load ptr, ptr %d_pContextObjRestore18, align 8
  store ptr %8, ptr %d_pContextObjRestore, align 8
  %cmp21.not = icmp eq ptr %6, null
  br i1 %cmp21.not, label %if.end, label %if.then22

if.then22:                                        ; preds = %if.else
  %d_ppContextObjPrev.i39 = getelementptr inbounds i8, ptr %6, i64 32
  store ptr %d_pContextObjNext8, ptr %d_ppContextObjPrev.i39, align 8
  %.pre = load ptr, ptr %d_ppContextObjPrev.i, align 8
  br label %if.end

if.end:                                           ; preds = %if.then22, %if.else
  %9 = phi ptr [ %.pre, %if.then22 ], [ %7, %if.else ]
  store ptr %this, ptr %9, align 8
  br label %if.end27

if.end27:                                         ; preds = %if.end, %cond.end
  %pContextObjNext.0 = phi ptr [ %1, %cond.end ], [ %3, %if.end ]
  ret ptr %pContextObjNext.0
}